target datalayout = "e-m:e-p270:32:32-p271:32:32-p272:64:64-i64:64-i128:128-f80:128-n8:16:32:64-S128"
target triple = "x86_64-pc-linux-gnu"

%"struct.faiss::InvertedLists" = type <{ ptr, i64, i64, i8, [7 x i8] }>

; Function Attrs: mustprogress uwtable
define noundef i64 @_ZNK5faiss13InvertedLists14compute_ntotalEv(ptr noundef nonnull align 8 dereferenceable(25) %0) #2 align 2 {
  %2 = alloca ptr, align 8
  %3 = alloca i64, align 8
  %4 = alloca i64, align 8
  store ptr %0, ptr %2, align 8, !tbaa !9
  %5 = load ptr, ptr %2, align 8
  call void @llvm.lifetime.start.p0(i64 8, ptr %3) #6
  store i64 0, ptr %3, align 8, !tbaa !11
  call void @llvm.lifetime.start.p0(i64 8, ptr %4) #6
  store i64 0, ptr %4, align 8, !tbaa !11
  br label %6

6:                                                ; preds = %20, %1
  %7 = load i64, ptr %4, align 8, !tbaa !11
  %8 = getelementptr inbounds nuw %"struct.faiss::InvertedLists", ptr %5, i32 0, i32 1
  %9 = load i64, ptr %8, align 8, !tbaa !28
  %10 = icmp ult i64 %7, %9
  br i1 %10, label %12, label %11

11:                                               ; preds = %6
  call void @llvm.lifetime.end.p0(i64 8, ptr %4) #6
  br label %23

12:                                               ; preds = %6
  %13 = load i64, ptr %4, align 8, !tbaa !11
  %14 = load ptr, ptr %5, align 8, !tbaa !17
  %15 = getelementptr inbounds ptr, ptr %14, i64 2
  %16 = load ptr, ptr %15, align 8
  %17 = call noundef i64 %16(ptr noundef nonnull align 8 dereferenceable(25) %5, i64 noundef %13)
  %18 = load i64, ptr %3, align 8, !tbaa !11
  %19 = add i64 %18, %17
  store i64 %19, ptr %3, align 8, !tbaa !11
  br label %20

20:                                               ; preds = %12
  %21 = load i64, ptr %4, align 8, !tbaa !11
  %22 = add i64 %21, 1
  store i64 %22, ptr %4, align 8, !tbaa !11
  br label %6, !llvm.loop !118

23:                                               ; preds = %11
  %24 = load i64, ptr %3, align 8, !tbaa !11
  call void @llvm.lifetime.end.p0(i64 8, ptr %3) #6
  ret i64 %24
}