; Function Attrs: mustprogress uwtable
define noundef i64 @_ZNK5faiss13InvertedLists14compute_ntotalEv(ptr noundef nonnull align 8 dereferenceable(25) %0) local_unnamed_addr #2 align 2 {
  %2 = getelementptr inbounds nuw i8, ptr %0, i64 8
  %3 = load i64, ptr %2, align 8, !tbaa !39
  %.not = icmp eq i64 %3, 0
  br i1 %.not, label %._crit_edge, label %.lr.ph

._crit_edge:                                      ; preds = %.lr.ph, %1
  %.05.lcssa = phi i64 [ 0, %1 ], [ %8, %.lr.ph ]
  ret i64 %.05.lcssa

.lr.ph:                                           ; preds = %1, %.lr.ph
  %.07 = phi i64 [ %9, %.lr.ph ], [ 0, %1 ]
  %.056 = phi i64 [ %8, %.lr.ph ], [ 0, %1 ]
  %4 = load ptr, ptr %0, align 8, !tbaa !4
  %5 = getelementptr inbounds nuw i8, ptr %4, i64 16
  %6 = load ptr, ptr %5, align 8
  %7 = tail call noundef i64 %6(ptr noundef nonnull align 8 dereferenceable(25) %0, i64 noundef %.07)
  %8 = add i64 %7, %.056
  %9 = add nuw i64 %.07, 1
  %10 = load i64, ptr %2, align 8, !tbaa !39
  %11 = icmp ult i64 %9, %10
  br i1 %11, label %.lr.ph, label %._crit_edge, !llvm.loop !87
}